(dp1
S'Failure Test'
p2
(dp3
S'project'
p4
S'1'
sS'cases'
p5
(lp6
S'768'
p7
aS'772'
p8
aS'776'
p9
aS'906'
p10
aS'1031'
p11
aS'1033'
p12
aS'1038'
p13
aS'1069'
p14
aS'1088'
p15
aS'1091'
p16
aS'1226'
p17
aS'2545'
p18
aS'2547'
p19
aS'2549'
p20
aS'3295'
p21
aS'3297'
p22
aS'3299'
p23
aS'4816'
p24
aS'4818'
p25
aS'4820'
p26
aS'4822'
p27
aS'4824'
p28
aS'4826'
p29
asS'testplanid'
p30
S'4981'
p31
ssS'Failure Test III'
p32
(dp33
S'project'
p34
S'1'
sS'cases'
p35
(lp36
S'768'
p37
aS'772'
p38
aS'776'
p39
aS'906'
p40
aS'1031'
p41
aS'1033'
p42
aS'1038'
p43
aS'1069'
p44
aS'1088'
p45
aS'1091'
p46
aS'1226'
p47
aS'2545'
p48
aS'2547'
p49
aS'2549'
p50
aS'2888'
p51
aS'588'
p52
aS'793'
p53
asS'testplanid'
p54
S'4983'
p55
ssV5.2 Web Portal Test Plan
p56
(dp57
S'project'
p58
S'1'
sS'cases'
p59
(lp60
S'5735'
p61
aS'5737'
p62
asS'testplanid'
p63
S'5741'
p64
ssS'PiETEST'
p65
(dp66
S'project'
p67
S'1'
sS'cases'
p68
(lp69
S'768'
p70
aS'772'
p71
aS'776'
p72
aS'906'
p73
aS'1031'
p74
aS'1033'
p75
aS'1038'
p76
aS'1069'
p77
aS'1088'
p78
aS'1091'
p79
aS'3295'
p80
aS'3297'
p81
aS'3299'
p82
aS'4816'
p83
aS'4818'
p84
asS'testplanid'
p85
S'5113'
p86
ssV5.3 Staging Test Plan
p87
(dp88
S'project'
p89
S'1'
sS'cases'
p90
(lp91
S'2501'
p92
aS'2736'
p93
aS'5873'
p94
aS'2715'
p95
aS'2720'
p96
aS'2535'
p97
aS'2537'
p98
aS'2529'
p99
aS'2525'
p100
aS'5708'
p101
aS'5710'
p102
aS'5720'
p103
aS'5722'
p104
asS'testplanid'
p105
S'5882'
p106
ssV5.3 to Staging Test Plan
p107
(dp108
S'project'
p109
S'5883'
p110
sS'cases'
p111
(lp112
S'5922'
p113
aS'5924'
p114
aS'5926'
p115
aS'5928'
p116
aS'5930'
p117
aS'5932'
p118
aS'5950'
p119
aS'5952'
p120
aS'5954'
p121
aS'5958'
p122
aS'5960'
p123
aS'5962'
p124
aS'5964'
p125
aS'5966'
p126
aS'5968'
p127
aS'5970'
p128
aS'5972'
p129
aS'5974'
p130
aS'5976'
p131
aS'5978'
p132
aS'5980'
p133
aS'5982'
p134
aS'5984'
p135
aS'5986'
p136
aS'5988'
p137
aS'5990'
p138
aS'5992'
p139
aS'5994'
p140
aS'5996'
p141
aS'6000'
p142
aS'6004'
p143
aS'6013'
p144
aS'6015'
p145
aS'6017'
p146
aS'6024'
p147
asS'testplanid'
p148
S'6009'
p149
ssS'Failure Test II'
p150
(dp151
S'project'
p152
S'1'
sS'cases'
p153
(lp154
S'768'
p155
aS'772'
p156
aS'776'
p157
aS'906'
p158
aS'1031'
p159
aS'1033'
p160
aS'1038'
p161
aS'1069'
p162
aS'1088'
p163
aS'1091'
p164
aS'1226'
p165
aS'2545'
p166
aS'2547'
p167
aS'2549'
p168
aS'3295'
p169
aS'3297'
p170
asS'testplanid'
p171
S'4982'
p172
ss.